target datalayout = "e-m:e-p270:32:32-p271:32:32-p272:64:64-i64:64-i128:128-f80:128-n8:16:32:64-S128"
target triple = "x86_64-pc-linux-gnu"

%struct.ossl_store_search_st = type { i32, ptr, ptr, ptr, ptr, i64 }

@.str.2 = private unnamed_addr constant [36 x i8] c"../openssl/crypto/store/store_lib.c\00", align 1

; Function Attrs: nounwind uwtable
define ptr @OSSL_STORE_SEARCH_by_issuer_serial(ptr noundef %0, ptr noundef %1) #0 {
  %3 = alloca ptr, align 8
  %4 = alloca ptr, align 8
  %5 = alloca ptr, align 8
  %6 = alloca ptr, align 8
  %7 = alloca i32, align 4
  store ptr %0, ptr %4, align 8, !tbaa !99
  store ptr %1, ptr %5, align 8, !tbaa !100
  call void @llvm.lifetime.start.p0(i64 8, ptr %6) #8
  %8 = call noalias ptr @CRYPTO_zalloc(i64 noundef 48, ptr noundef @.str.2, i32 noundef 920)
  store ptr %8, ptr %6, align 8, !tbaa !60
  %9 = load ptr, ptr %6, align 8, !tbaa !60
  %10 = icmp eq ptr %9, null
  br i1 %10, label %11, label %12

11:                                               ; preds = %2
  store ptr null, ptr %3, align 8
  store i32 1, ptr %7, align 4
  br label %22

12:                                               ; preds = %2
  %13 = load ptr, ptr %6, align 8, !tbaa !60
  %14 = getelementptr inbounds nuw %struct.ossl_store_search_st, ptr %13, i32 0, i32 0
  store i32 2, ptr %14, align 8, !tbaa !66
  %15 = load ptr, ptr %4, align 8, !tbaa !99
  %16 = load ptr, ptr %6, align 8, !tbaa !60
  %17 = getelementptr inbounds nuw %struct.ossl_store_search_st, ptr %16, i32 0, i32 1
  store ptr %15, ptr %17, align 8, !tbaa !71
  %18 = load ptr, ptr %5, align 8, !tbaa !100
  %19 = load ptr, ptr %6, align 8, !tbaa !60
  %20 = getelementptr inbounds nuw %struct.ossl_store_search_st, ptr %19, i32 0, i32 2
  store ptr %18, ptr %20, align 8, !tbaa !72
  %21 = load ptr, ptr %6, align 8, !tbaa !60
  store ptr %21, ptr %3, align 8
  store i32 1, ptr %7, align 4
  br label %22

22:                                               ; preds = %12, %11
  call void @llvm.lifetime.end.p0(i64 8, ptr %6) #8
  %23 = load ptr, ptr %3, align 8
  ret ptr %23
}