; Function Attrs: nounwind uwtable
define noalias ptr @OSSL_STORE_SEARCH_by_issuer_serial(ptr noundef %0, ptr noundef %1) local_unnamed_addr #0 {
  %3 = tail call noalias ptr @CRYPTO_zalloc(i64 noundef 48, ptr noundef nonnull @.str.2, i32 noundef 920) #9
  %4 = icmp eq ptr %3, null
  br i1 %4, label %8, label %5

5:                                                ; preds = %2
  store i32 2, ptr %3, align 8, !tbaa !47
  %6 = getelementptr inbounds nuw i8, ptr %3, i64 8
  store ptr %0, ptr %6, align 8, !tbaa !52
  %7 = getelementptr inbounds nuw i8, ptr %3, i64 16
  store ptr %1, ptr %7, align 8, !tbaa !53
  br label %8

8:                                                ; preds = %2, %5
  ret ptr %3
}